; Function Attrs: mustprogress nounwind uwtable
define void @_ZN8facebook5velox6memory9MmapArenaD2Ev(ptr noundef nonnull align 8 dereferenceable(120) %this) unnamed_addr #4 align 2 personality ptr @__gxx_personality_v0 {
entry:
  %address_ = getelementptr inbounds i8, ptr %this, i64 8
  %0 = load ptr, ptr %address_, align 8
  %1 = load i64, ptr %this, align 8
  %call = tail call i32 @munmap(ptr noundef %0, i64 noundef %1) #16
  %freeLookup_ = getelementptr inbounds i8, ptr %this, i64 72
  %_M_parent.i.i.i.i = getelementptr inbounds i8, ptr %this, i64 88
  %2 = load ptr, ptr %_M_parent.i.i.i.i, align 8
  invoke void @_ZNSt8_Rb_treeImSt4pairIKmSt13unordered_setImSt4hashImESt8equal_toImESaImEEESt10_Select1stIS9_ESt4lessImESaIS9_EE8_M_eraseEPSt13_Rb_tree_nodeIS9_E(ptr noundef nonnull align 8 dereferenceable(48) %freeLookup_, ptr noundef %2)
          to label %_ZNSt3mapImSt13unordered_setImSt4hashImESt8equal_toImESaImEESt4lessImESaISt4pairIKmS6_EEED2Ev.exit unwind label %terminate.lpad.i.i

terminate.lpad.i.i:                               ; preds = %entry
  %3 = landingpad { ptr, i32 }
          catch ptr null
  %4 = extractvalue { ptr, i32 } %3, 0
  tail call void @__clang_call_terminate(ptr %4) #17
  unreachable

_ZNSt3mapImSt13unordered_setImSt4hashImESt8equal_toImESaImEESt4lessImESaISt4pairIKmS6_EEED2Ev.exit: ; preds = %entry
  %freeList_ = getelementptr inbounds i8, ptr %this, i64 24
  %_M_parent.i.i.i.i1 = getelementptr inbounds i8, ptr %this, i64 40
  %5 = load ptr, ptr %_M_parent.i.i.i.i1, align 8
  invoke void @_ZNSt8_Rb_treeImSt4pairIKmmESt10_Select1stIS2_ESt4lessImESaIS2_EE8_M_eraseEPSt13_Rb_tree_nodeIS2_E(ptr noundef nonnull align 8 dereferenceable(48) %freeList_, ptr noundef %5)
          to label %_ZNSt3mapImmSt4lessImESaISt4pairIKmmEEED2Ev.exit unwind label %terminate.lpad.i.i2

terminate.lpad.i.i2:                              ; preds = %_ZNSt3mapImSt13unordered_setImSt4hashImESt8equal_toImESaImEESt4lessImESaISt4pairIKmS6_EEED2Ev.exit
  %6 = landingpad { ptr, i32 }
          catch ptr null
  %7 = extractvalue { ptr, i32 } %6, 0
  tail call void @__clang_call_terminate(ptr %7) #17
  unreachable

_ZNSt3mapImmSt4lessImESaISt4pairIKmmEEED2Ev.exit: ; preds = %_ZNSt3mapImSt13unordered_setImSt4hashImESt8equal_toImESaImEESt4lessImESaISt4pairIKmS6_EEED2Ev.exit
  ret void
}